; Function Attrs: mustprogress uwtable
define void @_ZN5arrow10StopSource5ResetEv(ptr noundef nonnull readonly align 8 captures(none) dereferenceable(16) %0) local_unnamed_addr #0 align 2 personality ptr @__gxx_personality_v0 {
  %2 = load ptr, ptr %0, align 8, !tbaa !23
  %3 = getelementptr inbounds nuw i8, ptr %2, i64 8
  %4 = tail call noundef i32 @pthread_mutex_lock(ptr noundef nonnull align 8 dereferenceable(40) %3) #27
  %.not.i.i = icmp eq i32 %4, 0
  br i1 %.not.i.i, label %_ZNSt10lock_guardISt5mutexEC2ERS0_.exit, label %5

5:                                                ; preds = %1
  tail call void @_ZSt20__throw_system_errori(i32 noundef %4) #28
  unreachable

_ZNSt10lock_guardISt5mutexEC2ERS0_.exit:          ; preds = %1
  %6 = load ptr, ptr %0, align 8, !tbaa !23
  %7 = getelementptr inbounds nuw i8, ptr %6, i64 48
  %8 = load ptr, ptr %7, align 8, !tbaa !25
  %.not.i.i1 = icmp eq ptr %8, null
  br i1 %.not.i.i1, label %_ZN5arrow6StatusD2Ev.exit, label %9, !prof !28

9:                                                ; preds = %_ZNSt10lock_guardISt5mutexEC2ERS0_.exit
  %10 = getelementptr inbounds nuw i8, ptr %8, i64 1
  %11 = load i8, ptr %10, align 1, !tbaa !29, !range !40, !noundef !41
  %12 = trunc nuw i8 %11 to i1
  br i1 %12, label %_ZN5arrow6StatusD2Ev.exit, label %13

13:                                               ; preds = %9
  tail call void @_ZN5arrow6Status11DeleteStateEv(ptr noundef nonnull align 8 dereferenceable(8) %7) #27
  %.pre = load ptr, ptr %0, align 8, !tbaa !23
  br label %_ZN5arrow6StatusD2Ev.exit

_ZN5arrow6StatusD2Ev.exit:                        ; preds = %13, %9, %_ZNSt10lock_guardISt5mutexEC2ERS0_.exit
  %14 = phi ptr [ %.pre, %13 ], [ %6, %9 ], [ %6, %_ZNSt10lock_guardISt5mutexEC2ERS0_.exit ]
  store ptr null, ptr %7, align 8, !tbaa !25
  store atomic i32 0, ptr %14 seq_cst, align 4
  %15 = tail call noundef i32 @pthread_mutex_unlock(ptr noundef nonnull align 8 dereferenceable(40) %3) #27
  ret void
}